target datalayout = "e-m:e-p270:32:32-p271:32:32-p272:64:64-i64:64-i128:128-f80:128-n8:16:32:64-S128"
target triple = "x86_64-pc-linux-gnu"

; Function Attrs: nounwind uwtable
define hidden i32 @uv__open_cloexec(ptr noundef %0, i32 noundef %1) #0 {
  %3 = alloca i32, align 4
  %4 = alloca ptr, align 8
  %5 = alloca i32, align 4
  %6 = alloca i32, align 4
  %7 = alloca i32, align 4
  store ptr %0, ptr %4, align 8
  store i32 %1, ptr %5, align 4
  call void @llvm.lifetime.start.p0(i64 4, ptr %6) #11
  %8 = load ptr, ptr %4, align 8
  %9 = load i32, ptr %5, align 4
  %10 = or i32 %9, 524288
  %11 = call i32 (ptr, i32, ...) @open64(ptr noundef %8, i32 noundef %10)
  store i32 %11, ptr %6, align 4
  %12 = load i32, ptr %6, align 4
  %13 = icmp eq i32 %12, -1
  br i1 %13, label %14, label %18

14:                                               ; preds = %2
  %15 = call ptr @__errno_location() #12
  %16 = load i32, ptr %15, align 4
  %17 = sub nsw i32 0, %16
  store i32 %17, ptr %3, align 4
  store i32 1, ptr %7, align 4
  br label %20

18:                                               ; preds = %2
  %19 = load i32, ptr %6, align 4
  store i32 %19, ptr %3, align 4
  store i32 1, ptr %7, align 4
  br label %20

20:                                               ; preds = %18, %14
  call void @llvm.lifetime.end.p0(i64 4, ptr %6) #11
  %21 = load i32, ptr %3, align 4
  ret i32 %21
}