; Function Attrs: nofree nounwind uwtable
define hidden i32 @uv__open_cloexec(ptr noundef readonly captures(none) %0, i32 noundef %1) local_unnamed_addr #8 {
  %3 = or i32 %1, 524288
  %4 = tail call i32 (ptr, i32, ...) @open64(ptr noundef %0, i32 noundef %3) #23
  %5 = icmp eq i32 %4, -1
  br i1 %5, label %6, label %10

6:                                                ; preds = %2
  %7 = tail call ptr @__errno_location() #24
  %8 = load i32, ptr %7, align 4
  %9 = sub nsw i32 0, %8
  br label %10

10:                                               ; preds = %2, %6
  %.0 = phi i32 [ %9, %6 ], [ %4, %2 ]
  ret i32 %.0
}